; Function Attrs: mustprogress uwtable
define hidden void @_ZN4cvc58internal6theory13QuantPhaseReqC2ENS0_12NodeTemplateILb1EEEb(ptr noundef nonnull align 8 dereferenceable(144) initializes((8, 12), (16, 24)) %0, ptr noundef readonly captures(none) %1, i1 noundef zeroext %2) unnamed_addr #3 align 2 personality ptr @__gxx_personality_v0 {
  %4 = alloca %"class.cvc5::internal::NodeTemplate", align 8
  %5 = getelementptr inbounds nuw i8, ptr %0, i64 8
  store i32 0, ptr %5, align 8, !tbaa !6
  %6 = getelementptr inbounds nuw i8, ptr %0, i64 16
  store ptr null, ptr %6, align 8, !tbaa !14
  %7 = getelementptr inbounds nuw i8, ptr %0, i64 24
  store ptr %5, ptr %7, align 8, !tbaa !15
  %8 = getelementptr inbounds nuw i8, ptr %0, i64 32
  store ptr %5, ptr %8, align 8, !tbaa !16
  %9 = getelementptr inbounds nuw i8, ptr %0, i64 40
  store i64 0, ptr %9, align 8, !tbaa !17
  %10 = getelementptr inbounds nuw i8, ptr %0, i64 56
  store i32 0, ptr %10, align 8, !tbaa !6
  %11 = getelementptr inbounds nuw i8, ptr %0, i64 64
  store ptr null, ptr %11, align 8, !tbaa !14
  %12 = getelementptr inbounds nuw i8, ptr %0, i64 72
  store ptr %10, ptr %12, align 8, !tbaa !15
  %13 = getelementptr inbounds nuw i8, ptr %0, i64 80
  store ptr %10, ptr %13, align 8, !tbaa !16
  %14 = getelementptr inbounds nuw i8, ptr %0, i64 88
  store i64 0, ptr %14, align 8, !tbaa !17
  %15 = getelementptr inbounds nuw i8, ptr %0, i64 104
  store i32 0, ptr %15, align 8, !tbaa !6
  %16 = getelementptr inbounds nuw i8, ptr %0, i64 112
  store ptr null, ptr %16, align 8, !tbaa !14
  %17 = getelementptr inbounds nuw i8, ptr %0, i64 120
  store ptr %15, ptr %17, align 8, !tbaa !15
  %18 = getelementptr inbounds nuw i8, ptr %0, i64 128
  store ptr %15, ptr %18, align 8, !tbaa !16
  %19 = getelementptr inbounds nuw i8, ptr %0, i64 136
  store i64 0, ptr %19, align 8, !tbaa !17
  %20 = load ptr, ptr %1, align 8, !tbaa !18
  store ptr %20, ptr %4, align 8, !tbaa !18
  %21 = load i64, ptr %20, align 8
  %22 = lshr i64 %21, 40
  %23 = trunc nuw nsw i64 %22 to i32
  %24 = and i32 %23, 1048575
  %25 = icmp samesign ult i32 %24, 1048574
  br i1 %25, label %26, label %31, !prof !21

26:                                               ; preds = %3
  %27 = add i64 %21, 1099511627776
  %28 = and i64 %27, 1152920405095219200
  %29 = and i64 %21, -1152920405095219201
  %30 = or disjoint i64 %28, %29
  store i64 %30, ptr %20, align 8
  br label %_ZN4cvc58internal12NodeTemplateILb1EEC2ERKS2_.exit

31:                                               ; preds = %3
  %32 = icmp eq i32 %24, 1048574
  br i1 %32, label %33, label %_ZN4cvc58internal12NodeTemplateILb1EEC2ERKS2_.exit, !prof !22

33:                                               ; preds = %31
  %34 = or i64 %21, 1152920405095219200
  store i64 %34, ptr %20, align 8
  invoke void @_ZN4cvc58internal4expr9NodeValue20markRefCountMaxedOutEv(ptr noundef nonnull align 8 dereferenceable(24) %20)
          to label %_ZN4cvc58internal12NodeTemplateILb1EEC2ERKS2_.exit unwind label %48

_ZN4cvc58internal12NodeTemplateILb1EEC2ERKS2_.exit: ; preds = %31, %26, %33
  invoke void @_ZN4cvc58internal6theory13QuantPhaseReq10initializeENS0_12NodeTemplateILb1EEEb(ptr noundef nonnull align 8 dereferenceable(144) %0, ptr noundef nonnull %4, i1 noundef zeroext %2)
          to label %35 unwind label %50

35:                                               ; preds = %_ZN4cvc58internal12NodeTemplateILb1EEC2ERKS2_.exit
  %36 = load i64, ptr %20, align 8
  %37 = and i64 %36, 1152920405095219200
  %.not.i.i = icmp eq i64 %37, 1152920405095219200
  br i1 %.not.i.i, label %_ZN4cvc58internal12NodeTemplateILb1EED2Ev.exit, label %38, !prof !22

38:                                               ; preds = %35
  %39 = add i64 %36, 1152920405095219200
  %40 = and i64 %39, 1152920405095219200
  %41 = and i64 %36, -1152920405095219201
  %42 = or disjoint i64 %40, %41
  store i64 %42, ptr %20, align 8
  %43 = icmp eq i64 %40, 0
  br i1 %43, label %44, label %_ZN4cvc58internal12NodeTemplateILb1EED2Ev.exit, !prof !22

44:                                               ; preds = %38
  invoke void @_ZN4cvc58internal4expr9NodeValue15markForDeletionEv(ptr noundef nonnull align 8 dereferenceable(24) %20)
          to label %_ZN4cvc58internal12NodeTemplateILb1EED2Ev.exit unwind label %45

45:                                               ; preds = %44
  %46 = landingpad { ptr, i32 }
          catch ptr null
  %47 = extractvalue { ptr, i32 } %46, 0
  tail call void @__clang_call_terminate(ptr %47) #16
  unreachable

_ZN4cvc58internal12NodeTemplateILb1EED2Ev.exit:   ; preds = %35, %38, %44
  ret void

48:                                               ; preds = %33
  %49 = landingpad { ptr, i32 }
          cleanup
  br label %52

50:                                               ; preds = %_ZN4cvc58internal12NodeTemplateILb1EEC2ERKS2_.exit
  %51 = landingpad { ptr, i32 }
          cleanup
  call void @_ZN4cvc58internal12NodeTemplateILb1EED2Ev(ptr noundef nonnull align 8 dereferenceable(8) %4) #17
  br label %52

52:                                               ; preds = %50, %48
  %.pn = phi { ptr, i32 } [ %51, %50 ], [ %49, %48 ]
  %53 = getelementptr inbounds nuw i8, ptr %0, i64 96
  %54 = getelementptr inbounds nuw i8, ptr %0, i64 48
  call void @_ZNSt3mapIN4cvc58internal12NodeTemplateILb1EEES3_St4lessIS3_ESaISt4pairIKS3_S3_EEED2Ev(ptr noundef nonnull align 8 dereferenceable(48) %53) #17
  call void @_ZNSt3mapIN4cvc58internal12NodeTemplateILb1EEEbSt4lessIS3_ESaISt4pairIKS3_bEEED2Ev(ptr noundef nonnull align 8 dereferenceable(48) %54) #17
  call void @_ZNSt3mapIN4cvc58internal12NodeTemplateILb1EEEbSt4lessIS3_ESaISt4pairIKS3_bEEED2Ev(ptr noundef nonnull align 8 dereferenceable(48) %0) #17
  resume { ptr, i32 } %.pn
}